target datalayout = "e-m:e-p270:32:32-p271:32:32-p272:64:64-i64:64-i128:128-f80:128-n8:16:32:64-S128"
target triple = "x86_64-pc-linux-gnu"

@TMPI_BYTE = external constant ptr, align 8

; Function Attrs: mustprogress nounwind uwtable
define linkonce_odr noundef nonnull align 8 dereferenceable(8) ptr @_ZSt3minImERKT_S2_S2_(ptr noundef nonnull align 8 dereferenceable(8) %0, ptr noundef nonnull align 8 dereferenceable(8) %1) #2 comdat {
  %3 = alloca ptr, align 8
  %4 = alloca ptr, align 8
  %5 = alloca ptr, align 8
  store ptr %0, ptr %4, align 8
  store ptr %1, ptr %5, align 8
  %6 = load ptr, ptr %5, align 8
  %7 = load i64, ptr %6, align 8
  %8 = load ptr, ptr %4, align 8
  %9 = load i64, ptr %8, align 8
  %10 = icmp ult i64 %7, %9
  br i1 %10, label %11, label %13

11:                                               ; preds = %2
  %12 = load ptr, ptr %5, align 8
  store ptr %12, ptr %3, align 8
  br label %15

13:                                               ; preds = %2
  %14 = load ptr, ptr %4, align 8
  store ptr %14, ptr %3, align 8
  br label %15

15:                                               ; preds = %13, %11
  %16 = load ptr, ptr %3, align 8
  ret ptr %16
}

; Function Attrs: mustprogress uwtable
define void @_Z9gmx_bcastmPvP10tmpi_comm_(i64 noundef %0, ptr noundef %1, ptr noundef %2) #0 {
  %4 = alloca i64, align 8
  %5 = alloca ptr, align 8
  %6 = alloca ptr, align 8
  %7 = alloca i64, align 8
  %8 = alloca ptr, align 8
  %9 = alloca i64, align 8
  %10 = alloca i64, align 8
  %11 = alloca i64, align 8
  store i64 %0, ptr %4, align 8
  store ptr %1, ptr %5, align 8
  store ptr %2, ptr %6, align 8
  store i64 2147483647, ptr %7, align 8
  %12 = load ptr, ptr %5, align 8
  store ptr %12, ptr %8, align 8
  store i64 0, ptr %9, align 8
  %13 = load i64, ptr %4, align 8
  store i64 %13, ptr %10, align 8
  br label %14

14:                                               ; preds = %17, %3
  %15 = load i64, ptr %10, align 8
  %16 = icmp ugt i64 %15, 0
  br i1 %16, label %17, label %34

17:                                               ; preds = %14
  %18 = call noundef nonnull align 8 dereferenceable(8) ptr @_ZSt3minImERKT_S2_S2_(ptr noundef nonnull align 8 dereferenceable(8) %10, ptr noundef nonnull align 8 dereferenceable(8) %7)
  %19 = load i64, ptr %18, align 8
  store i64 %19, ptr %11, align 8
  %20 = load ptr, ptr %8, align 8
  %21 = load i64, ptr %9, align 8
  %22 = getelementptr inbounds i8, ptr %20, i64 %21
  %23 = load i64, ptr %11, align 8
  %24 = trunc i64 %23 to i32
  %25 = load ptr, ptr @TMPI_BYTE, align 8
  %26 = load ptr, ptr %6, align 8
  %27 = call noundef i32 @_Z10tMPI_BcastPviP14tmpi_datatype_iP10tmpi_comm_(ptr noundef %22, i32 noundef %24, ptr noundef %25, i32 noundef 0, ptr noundef %26)
  %28 = load i64, ptr %11, align 8
  %29 = load i64, ptr %9, align 8
  %30 = add i64 %29, %28
  store i64 %30, ptr %9, align 8
  %31 = load i64, ptr %11, align 8
  %32 = load i64, ptr %10, align 8
  %33 = sub i64 %32, %31
  store i64 %33, ptr %10, align 8
  br label %14, !llvm.loop !5

34:                                               ; preds = %14
  ret void
}