; Function Attrs: mustprogress uwtable
define void @_Z9gmx_bcastmPvP10tmpi_comm_(i64 noundef %0, ptr noundef %1, ptr noundef %2) local_unnamed_addr #0 {
  %.not13 = icmp eq i64 %0, 0
  br i1 %.not13, label %._crit_edge, label %.lr.ph

.lr.ph:                                           ; preds = %3
  %4 = load ptr, ptr @TMPI_BYTE, align 8
  br label %5

5:                                                ; preds = %.lr.ph, %5
  %.015 = phi i64 [ 0, %.lr.ph ], [ %9, %5 ]
  %storemerge14 = phi i64 [ %0, %.lr.ph ], [ %10, %5 ]
  %.sroa.speculated = tail call i64 @llvm.umin.i64(i64 %storemerge14, i64 2147483647)
  %6 = getelementptr inbounds i8, ptr %1, i64 %.015
  %7 = trunc nuw nsw i64 %.sroa.speculated to i32
  %8 = tail call noundef i32 @_Z10tMPI_BcastPviP14tmpi_datatype_iP10tmpi_comm_(ptr noundef %6, i32 noundef %7, ptr noundef %4, i32 noundef 0, ptr noundef %2)
  %9 = add i64 %.015, %.sroa.speculated
  %10 = sub i64 %storemerge14, %.sroa.speculated
  %.not = icmp eq i64 %10, 0
  br i1 %.not, label %._crit_edge, label %5, !llvm.loop !8

._crit_edge:                                      ; preds = %5, %3
  ret void
}